; Function Attrs: nounwind sspstrong uwtable
define internal i64 @iseqw_path(i64 noundef %0) #0 {
  %2 = tail call ptr @rb_check_typeddata(i64 noundef %0, ptr noundef nonnull @iseqw_data_type) #20
  %3 = load ptr, ptr %2, align 8, !tbaa !244
  %4 = getelementptr inbounds nuw i8, ptr %3, i64 16
  %5 = load ptr, ptr %4, align 8, !tbaa !7
  %.not.i = icmp eq ptr %5, null
  br i1 %.not.i, label %6, label %7

6:                                                ; preds = %1
  tail call void @rb_ibf_load_iseq_complete(ptr noundef nonnull %3) #20
  %.pre.i = load ptr, ptr %4, align 8, !tbaa !7
  br label %7

7:                                                ; preds = %6, %1
  %8 = phi ptr [ %.pre.i, %6 ], [ %5, %1 ]
  %9 = getelementptr inbounds nuw i8, ptr %8, i64 80
  %10 = load i64, ptr %9, align 8, !tbaa !232
  %.not5.i = icmp eq i64 %10, 0
  br i1 %.not5.i, label %11, label %iseqw_check.exit

11:                                               ; preds = %7
  %12 = load i64, ptr @rb_eTypeError, align 8, !tbaa !42
  tail call void (i64, ptr, ...) @rb_raise(i64 noundef %12, ptr noundef nonnull @.str.158) #21
  unreachable

iseqw_check.exit:                                 ; preds = %7
  %13 = getelementptr inbounds nuw i8, ptr %8, i64 64
  %14 = load i64, ptr %13, align 8, !tbaa !240
  %15 = icmp ne i64 %14, 0
  %16 = and i64 %14, 7
  %17 = icmp eq i64 %16, 0
  %.not4.i = and i1 %15, %17
  %.pre.i.i = inttoptr i64 %14 to ptr
  %.pre.i1 = load i64, ptr %.pre.i.i, align 8, !tbaa !74
  %18 = and i64 %.pre.i1, 31
  %19 = icmp eq i64 %18, 5
  %or.cond.i = select i1 %.not4.i, i1 %19, i1 false
  br i1 %or.cond.i, label %rb_iseq_path.exit, label %rbimpl_RB_TYPE_P_fastpath.exit.thread.i.i

rbimpl_RB_TYPE_P_fastpath.exit.thread.i.i:        ; preds = %iseqw_check.exit
  %20 = and i64 %.pre.i1, 8192
  %.not.i.i.i.i = icmp eq i64 %20, 0
  br i1 %.not.i.i.i.i, label %23, label %21

21:                                               ; preds = %rbimpl_RB_TYPE_P_fastpath.exit.thread.i.i
  %22 = getelementptr inbounds nuw i8, ptr %.pre.i.i, i64 16
  br label %RARRAY_AREF.exit.i.i

23:                                               ; preds = %rbimpl_RB_TYPE_P_fastpath.exit.thread.i.i
  %24 = getelementptr inbounds nuw i8, ptr %.pre.i.i, i64 32
  %25 = load ptr, ptr %24, align 8, !tbaa !84
  br label %RARRAY_AREF.exit.i.i

RARRAY_AREF.exit.i.i:                             ; preds = %23, %21
  %.0.i.i.i.i = phi ptr [ %22, %21 ], [ %25, %23 ]
  %26 = load i64, ptr %.0.i.i.i.i, align 8, !tbaa !42
  br label %rb_iseq_path.exit

rb_iseq_path.exit:                                ; preds = %iseqw_check.exit, %RARRAY_AREF.exit.i.i
  %.0.i.i = phi i64 [ %26, %RARRAY_AREF.exit.i.i ], [ %14, %iseqw_check.exit ]
  ret i64 %.0.i.i
}